target datalayout = "e-m:e-p270:32:32-p271:32:32-p272:64:64-i64:64-i128:128-f80:128-n8:16:32:64-S128"
target triple = "x86_64-pc-linux-gnu"

%struct.CoeffVLCs = type { [2 x ptr], [2 x ptr], [2 x ptr], ptr }
%struct.VLCInitState = type { ptr, i32 }

@__const.rv60_init_static_data.state = private unnamed_addr constant { ptr, i32, [4 x i8] } { ptr @table_data, i32 129148, [4 x i8] zeroinitializer }, align 8
@cbp8_vlc = internal global [7 x [4 x ptr]] zeroinitializer, align 16
@cbp16_vlc = internal global [7 x [3 x [4 x ptr]]] zeroinitializer, align 16
@intra_coeff_vlc = internal global [5 x %struct.CoeffVLCs] zeroinitializer, align 16
@inter_coeff_vlc = internal global [7 x %struct.CoeffVLCs] zeroinitializer, align 16

; Function Attrs: cold nounwind optsize uwtable
define internal void @rv60_init_static_data() #0 {
  %1 = alloca %struct.VLCInitState, align 8
  %2 = alloca i32, align 4
  %3 = alloca i32, align 4
  %4 = alloca i32, align 4
  %5 = alloca i32, align 4
  %6 = alloca i32, align 4
  %7 = alloca i32, align 4
  call void @llvm.lifetime.start.p0(i64 16, ptr %1) #11
  call void @llvm.memcpy.p0.p0.i64(ptr align 8 %1, ptr align 8 @__const.rv60_init_static_data.state, i64 16, i1 false)
  call void @llvm.lifetime.start.p0(i64 4, ptr %2) #11
  store i32 0, ptr %2, align 4, !tbaa !36
  br label %8

8:                                                ; preds = %36, %0
  %9 = load i32, ptr %2, align 4, !tbaa !36
  %10 = icmp slt i32 %9, 7
  br i1 %10, label %12, label %11

11:                                               ; preds = %8
  store i32 2, ptr %3, align 4
  call void @llvm.lifetime.end.p0(i64 4, ptr %2) #11
  br label %39

12:                                               ; preds = %8
  call void @llvm.lifetime.start.p0(i64 4, ptr %4) #11
  store i32 0, ptr %4, align 4, !tbaa !36
  br label %13

13:                                               ; preds = %32, %12
  %14 = load i32, ptr %4, align 4, !tbaa !36
  %15 = icmp slt i32 %14, 4
  br i1 %15, label %17, label %16

16:                                               ; preds = %13
  store i32 5, ptr %3, align 4
  call void @llvm.lifetime.end.p0(i64 4, ptr %4) #11
  br label %35

17:                                               ; preds = %13
  %18 = load i32, ptr %2, align 4, !tbaa !36
  %19 = sext i32 %18 to i64
  %20 = getelementptr inbounds [7 x [4 x [64 x i8]]], ptr @rv60_cbp8_lens, i64 0, i64 %19
  %21 = load i32, ptr %4, align 4, !tbaa !36
  %22 = sext i32 %21 to i64
  %23 = getelementptr inbounds [4 x [64 x i8]], ptr %20, i64 0, i64 %22
  %24 = getelementptr inbounds [64 x i8], ptr %23, i64 0, i64 0
  %25 = call ptr @gen_vlc(ptr noundef %24, i32 noundef 64, ptr noundef %1)
  %26 = load i32, ptr %2, align 4, !tbaa !36
  %27 = sext i32 %26 to i64
  %28 = getelementptr inbounds [7 x [4 x ptr]], ptr @cbp8_vlc, i64 0, i64 %27
  %29 = load i32, ptr %4, align 4, !tbaa !36
  %30 = sext i32 %29 to i64
  %31 = getelementptr inbounds [4 x ptr], ptr %28, i64 0, i64 %30
  store ptr %25, ptr %31, align 8, !tbaa !75
  br label %32

32:                                               ; preds = %17
  %33 = load i32, ptr %4, align 4, !tbaa !36
  %34 = add nsw i32 %33, 1
  store i32 %34, ptr %4, align 4, !tbaa !36
  br label %13, !llvm.loop !77

35:                                               ; preds = %16
  br label %36

36:                                               ; preds = %35
  %37 = load i32, ptr %2, align 4, !tbaa !36
  %38 = add nsw i32 %37, 1
  store i32 %38, ptr %2, align 4, !tbaa !36
  br label %8, !llvm.loop !78

39:                                               ; preds = %11
  call void @llvm.lifetime.start.p0(i64 4, ptr %5) #11
  store i32 0, ptr %5, align 4, !tbaa !36
  br label %40

40:                                               ; preds = %83, %39
  %41 = load i32, ptr %5, align 4, !tbaa !36
  %42 = icmp slt i32 %41, 7
  br i1 %42, label %44, label %43

43:                                               ; preds = %40
  store i32 8, ptr %3, align 4
  call void @llvm.lifetime.end.p0(i64 4, ptr %5) #11
  br label %86

44:                                               ; preds = %40
  call void @llvm.lifetime.start.p0(i64 4, ptr %6) #11
  store i32 0, ptr %6, align 4, !tbaa !36
  br label %45

45:                                               ; preds = %79, %44
  %46 = load i32, ptr %6, align 4, !tbaa !36
  %47 = icmp slt i32 %46, 3
  br i1 %47, label %49, label %48

48:                                               ; preds = %45
  store i32 11, ptr %3, align 4
  call void @llvm.lifetime.end.p0(i64 4, ptr %6) #11
  br label %82

49:                                               ; preds = %45
  call void @llvm.lifetime.start.p0(i64 4, ptr %7) #11
  store i32 0, ptr %7, align 4, !tbaa !36
  br label %50

50:                                               ; preds = %75, %49
  %51 = load i32, ptr %7, align 4, !tbaa !36
  %52 = icmp slt i32 %51, 4
  br i1 %52, label %54, label %53

53:                                               ; preds = %50
  store i32 14, ptr %3, align 4
  call void @llvm.lifetime.end.p0(i64 4, ptr %7) #11
  br label %78

54:                                               ; preds = %50
  %55 = load i32, ptr %5, align 4, !tbaa !36
  %56 = sext i32 %55 to i64
  %57 = getelementptr inbounds [7 x [3 x [4 x [64 x i8]]]], ptr @rv60_cbp16_lens, i64 0, i64 %56
  %58 = load i32, ptr %6, align 4, !tbaa !36
  %59 = sext i32 %58 to i64
  %60 = getelementptr inbounds [3 x [4 x [64 x i8]]], ptr %57, i64 0, i64 %59
  %61 = load i32, ptr %7, align 4, !tbaa !36
  %62 = sext i32 %61 to i64
  %63 = getelementptr inbounds [4 x [64 x i8]], ptr %60, i64 0, i64 %62
  %64 = getelementptr inbounds [64 x i8], ptr %63, i64 0, i64 0
  %65 = call ptr @gen_vlc(ptr noundef %64, i32 noundef 64, ptr noundef %1)
  %66 = load i32, ptr %5, align 4, !tbaa !36
  %67 = sext i32 %66 to i64
  %68 = getelementptr inbounds [7 x [3 x [4 x ptr]]], ptr @cbp16_vlc, i64 0, i64 %67
  %69 = load i32, ptr %6, align 4, !tbaa !36
  %70 = sext i32 %69 to i64
  %71 = getelementptr inbounds [3 x [4 x ptr]], ptr %68, i64 0, i64 %70
  %72 = load i32, ptr %7, align 4, !tbaa !36
  %73 = sext i32 %72 to i64
  %74 = getelementptr inbounds [4 x ptr], ptr %71, i64 0, i64 %73
  store ptr %65, ptr %74, align 8, !tbaa !75
  br label %75

75:                                               ; preds = %54
  %76 = load i32, ptr %7, align 4, !tbaa !36
  %77 = add nsw i32 %76, 1
  store i32 %77, ptr %7, align 4, !tbaa !36
  br label %50, !llvm.loop !79

78:                                               ; preds = %53
  br label %79

79:                                               ; preds = %78
  %80 = load i32, ptr %6, align 4, !tbaa !36
  %81 = add nsw i32 %80, 1
  store i32 %81, ptr %6, align 4, !tbaa !36
  br label %45, !llvm.loop !80

82:                                               ; preds = %48
  br label %83

83:                                               ; preds = %82
  %84 = load i32, ptr %5, align 4, !tbaa !36
  %85 = add nsw i32 %84, 1
  store i32 %85, ptr %5, align 4, !tbaa !36
  br label %40, !llvm.loop !81

86:                                               ; preds = %43
  call void @build_coeff_vlc(ptr noundef @rv60_intra_lens, ptr noundef @intra_coeff_vlc, i32 noundef 5, ptr noundef %1)
  call void @build_coeff_vlc(ptr noundef @rv60_inter_lens, ptr noundef @inter_coeff_vlc, i32 noundef 7, ptr noundef %1)
  call void @llvm.lifetime.end.p0(i64 16, ptr %1) #11
  ret void
}