; Function Attrs: cold nounwind optsize uwtable
define internal void @rv60_init_static_data() #0 {
  %1 = alloca %struct.VLCInitState, align 8
  call void @llvm.lifetime.start.p0(i64 16, ptr nonnull %1) #16
  call void @llvm.memcpy.p0.p0.i64(ptr noundef nonnull align 8 dereferenceable(16) %1, ptr noundef nonnull align 8 dereferenceable(16) @__const.rv60_init_static_data.state, i64 16, i1 false)
  br label %.preheader26

.preheader26:                                     ; preds = %0, %2
  %indvars.iv33 = phi i64 [ 0, %0 ], [ %indvars.iv.next34, %2 ]
  br label %3

2:                                                ; preds = %3
  %indvars.iv.next34 = add nuw nsw i64 %indvars.iv33, 1
  %exitcond36.not = icmp eq i64 %indvars.iv.next34, 7
  br i1 %exitcond36.not, label %.preheader24, label %.preheader26, !llvm.loop !83

3:                                                ; preds = %.preheader26, %3
  %indvars.iv = phi i64 [ 0, %.preheader26 ], [ %indvars.iv.next, %3 ]
  %4 = getelementptr inbounds nuw [7 x [4 x [64 x i8]]], ptr @rv60_cbp8_lens, i64 0, i64 %indvars.iv33, i64 %indvars.iv
  %5 = call fastcc ptr @gen_vlc(ptr noundef nonnull %4, i32 noundef 64, ptr noundef %1)
  %6 = getelementptr inbounds nuw [7 x [4 x ptr]], ptr @cbp8_vlc, i64 0, i64 %indvars.iv33, i64 %indvars.iv
  store ptr %5, ptr %6, align 8, !tbaa !84
  %indvars.iv.next = add nuw nsw i64 %indvars.iv, 1
  %exitcond.not = icmp eq i64 %indvars.iv.next, 4
  br i1 %exitcond.not, label %2, label %3, !llvm.loop !86

.preheader24:                                     ; preds = %2, %8
  %indvars.iv45 = phi i64 [ %indvars.iv.next46, %8 ], [ 0, %2 ]
  br label %.preheader

7:                                                ; preds = %8
  call fastcc void @build_coeff_vlc(ptr noundef nonnull @rv60_intra_lens, ptr noundef nonnull @intra_coeff_vlc, i32 noundef 5, ptr noundef %1)
  call fastcc void @build_coeff_vlc(ptr noundef nonnull @rv60_inter_lens, ptr noundef nonnull @inter_coeff_vlc, i32 noundef 7, ptr noundef %1)
  call void @llvm.lifetime.end.p0(i64 16, ptr nonnull %1) #16
  ret void

.preheader:                                       ; preds = %.preheader24, %9
  %indvars.iv41 = phi i64 [ 0, %.preheader24 ], [ %indvars.iv.next42, %9 ]
  br label %10

8:                                                ; preds = %9
  %indvars.iv.next46 = add nuw nsw i64 %indvars.iv45, 1
  %exitcond48.not = icmp eq i64 %indvars.iv.next46, 7
  br i1 %exitcond48.not, label %7, label %.preheader24, !llvm.loop !87

9:                                                ; preds = %10
  %indvars.iv.next42 = add nuw nsw i64 %indvars.iv41, 1
  %exitcond44.not = icmp eq i64 %indvars.iv.next42, 3
  br i1 %exitcond44.not, label %8, label %.preheader, !llvm.loop !88

10:                                               ; preds = %.preheader, %10
  %indvars.iv37 = phi i64 [ 0, %.preheader ], [ %indvars.iv.next38, %10 ]
  %11 = getelementptr inbounds nuw [7 x [3 x [4 x [64 x i8]]]], ptr @rv60_cbp16_lens, i64 0, i64 %indvars.iv45, i64 %indvars.iv41, i64 %indvars.iv37
  %12 = call fastcc ptr @gen_vlc(ptr noundef nonnull %11, i32 noundef 64, ptr noundef %1)
  %13 = getelementptr inbounds nuw [7 x [3 x [4 x ptr]]], ptr @cbp16_vlc, i64 0, i64 %indvars.iv45, i64 %indvars.iv41, i64 %indvars.iv37
  store ptr %12, ptr %13, align 8, !tbaa !84
  %indvars.iv.next38 = add nuw nsw i64 %indvars.iv37, 1
  %exitcond40.not = icmp eq i64 %indvars.iv.next38, 4
  br i1 %exitcond40.not, label %9, label %10, !llvm.loop !89
}